target datalayout = "e-m:e-p270:32:32-p271:32:32-p272:64:64-i64:64-i128:128-f80:128-n8:16:32:64-S128"
target triple = "x86_64-unknown-linux-gnu"

%struct.ResourceData = type { ptr, ptr, ptr, ptr, i32, i32, ptr, i32, i32, i8, i8, i8, i8 }

; Function Attrs: mustprogress uwtable
define i32 @res_getResource_75(ptr noundef %pResData, ptr noundef %key) #0 {
entry:
  %pResData.addr = alloca ptr, align 8
  %key.addr = alloca ptr, align 8
  %realKey = alloca ptr, align 8
  %idx = alloca i32, align 4
  store ptr %pResData, ptr %pResData.addr, align 8
  store ptr %key, ptr %key.addr, align 8
  %0 = load ptr, ptr %key.addr, align 8
  store ptr %0, ptr %realKey, align 8
  %1 = load ptr, ptr %pResData.addr, align 8
  %2 = load ptr, ptr %pResData.addr, align 8
  %rootRes = getelementptr inbounds %struct.ResourceData, ptr %2, i32 0, i32 4
  %3 = load i32, ptr %rootRes, align 8
  %call = call i32 @res_getTableItemByKey_75(ptr noundef %1, i32 noundef %3, ptr noundef %idx, ptr noundef %realKey)
  ret i32 %call
}