; Function Attrs: mustprogress nofree nounwind memory(read, argmem: readwrite, inaccessiblemem: none) uwtable
define i32 @res_getResource_75(ptr nocapture noundef readonly %pResData, ptr noundef %key) local_unnamed_addr #10 {
entry:
  %realKey = alloca ptr, align 8
  %idx = alloca i32, align 4
  store ptr %key, ptr %realKey, align 8
  %rootRes = getelementptr inbounds i8, ptr %pResData, i64 32
  %0 = load i32, ptr %rootRes, align 8
  %call = call i32 @res_getTableItemByKey_75(ptr noundef %pResData, i32 noundef %0, ptr noundef nonnull %idx, ptr noundef nonnull %realKey)
  ret i32 %call
}